target datalayout = "e-m:e-p270:32:32-p271:32:32-p272:64:64-i64:64-i128:128-f80:128-n8:16:32:64-S128"
target triple = "x86_64-pc-linux-gnu"

%struct.Vec_Int_t_ = type { i32, i32, ptr }

; Function Attrs: inlinehint nounwind uwtable
define internal i32 @Vec_IntAddToEntry(ptr noundef %0, i32 noundef %1, i32 noundef %2) #1 {
  %4 = alloca ptr, align 8
  %5 = alloca i32, align 4
  %6 = alloca i32, align 4
  store ptr %0, ptr %4, align 8, !tbaa !10
  store i32 %1, ptr %5, align 4, !tbaa !12
  store i32 %2, ptr %6, align 4, !tbaa !12
  %7 = load i32, ptr %6, align 4, !tbaa !12
  %8 = load ptr, ptr %4, align 8, !tbaa !10
  %9 = getelementptr inbounds nuw %struct.Vec_Int_t_, ptr %8, i32 0, i32 2
  %10 = load ptr, ptr %9, align 8, !tbaa !44
  %11 = load i32, ptr %5, align 4, !tbaa !12
  %12 = sext i32 %11 to i64
  %13 = getelementptr inbounds i32, ptr %10, i64 %12
  %14 = load i32, ptr %13, align 4, !tbaa !12
  %15 = add nsw i32 %14, %7
  store i32 %15, ptr %13, align 4, !tbaa !12
  ret i32 %15
}

; Function Attrs: inlinehint nounwind uwtable
define internal i32 @Vec_IntEntry(ptr noundef %0, i32 noundef %1) #1 {
  %3 = alloca ptr, align 8
  %4 = alloca i32, align 4
  store ptr %0, ptr %3, align 8, !tbaa !10
  store i32 %1, ptr %4, align 4, !tbaa !12
  %5 = load ptr, ptr %3, align 8, !tbaa !10
  %6 = getelementptr inbounds nuw %struct.Vec_Int_t_, ptr %5, i32 0, i32 2
  %7 = load ptr, ptr %6, align 8, !tbaa !44
  %8 = load i32, ptr %4, align 4, !tbaa !12
  %9 = sext i32 %8 to i64
  %10 = getelementptr inbounds i32, ptr %7, i64 %9
  %11 = load i32, ptr %10, align 4, !tbaa !12
  ret i32 %11
}

; Function Attrs: inlinehint nounwind uwtable
define internal i32 @Vec_IntSize(ptr noundef %0) #1 {
  %2 = alloca ptr, align 8
  store ptr %0, ptr %2, align 8, !tbaa !10
  %3 = load ptr, ptr %2, align 8, !tbaa !10
  %4 = getelementptr inbounds nuw %struct.Vec_Int_t_, ptr %3, i32 0, i32 1
  %5 = load i32, ptr %4, align 4, !tbaa !42
  ret i32 %5
}

; Function Attrs: nounwind uwtable
define void @Gia_ManMulFindAddEntry1(ptr noundef %0, i32 noundef %1) #0 {
  %3 = alloca ptr, align 8
  %4 = alloca i32, align 4
  %5 = alloca i32, align 4
  %6 = alloca i32, align 4
  %7 = alloca i32, align 4
  store ptr %0, ptr %3, align 8, !tbaa !10
  store i32 %1, ptr %4, align 4, !tbaa !12
  call void @llvm.lifetime.start.p0(i64 4, ptr %5) #10
  call void @llvm.lifetime.start.p0(i64 4, ptr %6) #10
  call void @llvm.lifetime.start.p0(i64 4, ptr %7) #10
  store i32 0, ptr %7, align 4, !tbaa !12
  br label %8

8:                                                ; preds = %35, %2
  %9 = load i32, ptr %7, align 4, !tbaa !12
  %10 = add nsw i32 %9, 1
  %11 = load ptr, ptr %3, align 8, !tbaa !10
  %12 = call i32 @Vec_IntSize(ptr noundef %11)
  %13 = icmp slt i32 %10, %12
  br i1 %13, label %14, label %23

14:                                               ; preds = %8
  %15 = load ptr, ptr %3, align 8, !tbaa !10
  %16 = load i32, ptr %7, align 4, !tbaa !12
  %17 = call i32 @Vec_IntEntry(ptr noundef %15, i32 noundef %16)
  store i32 %17, ptr %5, align 4, !tbaa !12
  br i1 true, label %18, label %23

18:                                               ; preds = %14
  %19 = load ptr, ptr %3, align 8, !tbaa !10
  %20 = load i32, ptr %7, align 4, !tbaa !12
  %21 = add nsw i32 %20, 1
  %22 = call i32 @Vec_IntEntry(ptr noundef %19, i32 noundef %21)
  store i32 %22, ptr %6, align 4, !tbaa !12
  br label %23

23:                                               ; preds = %18, %14, %8
  %24 = phi i1 [ false, %14 ], [ false, %8 ], [ true, %18 ]
  br i1 %24, label %25, label %38

25:                                               ; preds = %23
  %26 = load i32, ptr %4, align 4, !tbaa !12
  %27 = load i32, ptr %5, align 4, !tbaa !12
  %28 = icmp eq i32 %26, %27
  br i1 %28, label %29, label %34

29:                                               ; preds = %25
  %30 = load ptr, ptr %3, align 8, !tbaa !10
  %31 = load i32, ptr %7, align 4, !tbaa !12
  %32 = add nsw i32 %31, 1
  %33 = call i32 @Vec_IntAddToEntry(ptr noundef %30, i32 noundef %32, i32 noundef 1)
  br label %38

34:                                               ; preds = %25
  br label %35

35:                                               ; preds = %34
  %36 = load i32, ptr %7, align 4, !tbaa !12
  %37 = add nsw i32 %36, 2
  store i32 %37, ptr %7, align 4, !tbaa !12
  br label %8, !llvm.loop !69

38:                                               ; preds = %29, %23
  %39 = load i32, ptr %7, align 4, !tbaa !12
  %40 = load ptr, ptr %3, align 8, !tbaa !10
  %41 = call i32 @Vec_IntSize(ptr noundef %40)
  %42 = icmp eq i32 %39, %41
  br i1 %42, label %43, label %46

43:                                               ; preds = %38
  %44 = load ptr, ptr %3, align 8, !tbaa !10
  %45 = load i32, ptr %4, align 4, !tbaa !12
  call void @Vec_IntPushTwo(ptr noundef %44, i32 noundef %45, i32 noundef 1)
  br label %46

46:                                               ; preds = %43, %38
  call void @llvm.lifetime.end.p0(i64 4, ptr %7) #10
  call void @llvm.lifetime.end.p0(i64 4, ptr %6) #10
  call void @llvm.lifetime.end.p0(i64 4, ptr %5) #10
  ret void
}