; Function Attrs: nounwind uwtable
define void @Gia_ManMulFindAddEntry1(ptr noundef captures(none) %0, i32 noundef %1) local_unnamed_addr #0 {
  %3 = getelementptr i8, ptr %0, i64 4
  %.val15 = load i32, ptr %3, align 4, !tbaa !33
  %4 = icmp sgt i32 %.val15, 1
  br i1 %4, label %.lr.ph, label %.critedge

.lr.ph:                                           ; preds = %2
  %5 = getelementptr i8, ptr %0, i64 8
  %.val17 = load ptr, ptr %5, align 8, !tbaa !35
  br label %6

6:                                                ; preds = %.lr.ph, %17
  %indvars.iv = phi i64 [ 0, %.lr.ph ], [ %indvars.iv.next, %17 ]
  %7 = getelementptr inbounds nuw i32, ptr %.val17, i64 %indvars.iv
  %8 = load i32, ptr %7, align 4, !tbaa !29
  %9 = icmp eq i32 %1, %8
  br i1 %9, label %10, label %17

10:                                               ; preds = %6
  %11 = trunc nuw nsw i64 %indvars.iv to i32
  %12 = and i64 %indvars.iv, 4294967294
  %13 = or disjoint i64 %12, 1
  %14 = getelementptr inbounds nuw i32, ptr %.val17, i64 %13
  %15 = load i32, ptr %14, align 4, !tbaa !29
  %16 = add nsw i32 %15, 1
  store i32 %16, ptr %14, align 4, !tbaa !29
  %.val.pre = load i32, ptr %3, align 4, !tbaa !33
  br label %.critedge

17:                                               ; preds = %6
  %indvars.iv.next = add nuw nsw i64 %indvars.iv, 2
  %18 = trunc i64 %indvars.iv.next to i32
  %19 = or disjoint i32 %18, 1
  %20 = icmp slt i32 %19, %.val15
  br i1 %20, label %6, label %.critedge.loopexit.loopexit, !llvm.loop !68

.critedge.loopexit.loopexit:                      ; preds = %17
  %21 = trunc nuw i64 %indvars.iv.next to i32
  br label %.critedge

.critedge:                                        ; preds = %2, %.critedge.loopexit.loopexit, %10
  %.val = phi i32 [ %.val.pre, %10 ], [ %.val15, %.critedge.loopexit.loopexit ], [ %.val15, %2 ]
  %.023 = phi i32 [ %11, %10 ], [ %21, %.critedge.loopexit.loopexit ], [ 0, %2 ]
  %22 = icmp eq i32 %.023, %.val
  br i1 %22, label %23, label %24

23:                                               ; preds = %.critedge
  tail call fastcc void @Vec_IntPushTwo(ptr noundef nonnull %0, i32 noundef %1, i32 noundef 1)
  br label %24

24:                                               ; preds = %23, %.critedge
  ret void
}